; ModuleID = '51/124.c'
source_filename = "51/124.c"
target datalayout = "e-m:e-p270:32:32-p271:32:32-p272:64:64-i64:64-f80:128-n8:16:32:64-S128"
target triple = "x86_64-pc-linux-gnu"

@.str = private unnamed_addr constant [5 x i8] c"%d%s\00", align 1
@.str.1 = private unnamed_addr constant [3 x i8] c"NO\00", align 1
@.str.2 = private unnamed_addr constant [4 x i8] c"%d\0A\00", align 1
@.str.3 = private unnamed_addr constant [4 x i8] c"%s\0A\00", align 1

; Function Attrs: noinline nounwind uwtable
define dso_local void @main() #0 {
  %1 = alloca [501 x i8], align 16
  %2 = alloca [500 x [6 x i8]], align 16
  %3 = alloca i32, align 4
  %4 = alloca i32, align 4
  %5 = alloca i32, align 4
  %6 = alloca i32, align 4
  %7 = alloca i32, align 4
  %8 = alloca [500 x i32], align 16
  %9 = getelementptr inbounds [501 x i8], [501 x i8]* %1, i64 0, i64 0
  %10 = call i32 (i8*, ...) @__isoc99_scanf(i8* getelementptr inbounds ([5 x i8], [5 x i8]* @.str, i64 0, i64 0), i32* %3, i8* %9)
  %11 = getelementptr inbounds [501 x i8], [501 x i8]* %1, i64 0, i64 0
  %12 = call i64 @strlen(i8* %11) #3
  %13 = trunc i64 %12 to i32
  store i32 %13, i32* %5, align 4
  store i32 0, i32* %4, align 4
  br label %14

14:                                               ; preds = %48, %0
  %15 = load i32, i32* %4, align 4
  %16 = load i32, i32* %5, align 4
  %17 = load i32, i32* %3, align 4
  %18 = sub nsw i32 %16, %17
  %19 = icmp sle i32 %15, %18
  br i1 %19, label %20, label %51

20:                                               ; preds = %14
  store i32 0, i32* %6, align 4
  br label %21

21:                                               ; preds = %38, %20
  %22 = load i32, i32* %6, align 4
  %23 = load i32, i32* %3, align 4
  %24 = icmp slt i32 %22, %23
  br i1 %24, label %25, label %41

25:                                               ; preds = %21
  %26 = load i32, i32* %4, align 4
  %27 = load i32, i32* %6, align 4
  %28 = add nsw i32 %26, %27
  %29 = sext i32 %28 to i64
  %30 = getelementptr inbounds [501 x i8], [501 x i8]* %1, i64 0, i64 %29
  %31 = load i8, i8* %30, align 1
  %32 = load i32, i32* %4, align 4
  %33 = sext i32 %32 to i64
  %34 = getelementptr inbounds [500 x [6 x i8]], [500 x [6 x i8]]* %2, i64 0, i64 %33
  %35 = load i32, i32* %6, align 4
  %36 = sext i32 %35 to i64
  %37 = getelementptr inbounds [6 x i8], [6 x i8]* %34, i64 0, i64 %36
  store i8 %31, i8* %37, align 1
  br label %38

38:                                               ; preds = %25
  %39 = load i32, i32* %6, align 4
  %40 = add nsw i32 %39, 1
  store i32 %40, i32* %6, align 4
  br label %21

41:                                               ; preds = %21
  %42 = load i32, i32* %4, align 4
  %43 = sext i32 %42 to i64
  %44 = getelementptr inbounds [500 x [6 x i8]], [500 x [6 x i8]]* %2, i64 0, i64 %43
  %45 = load i32, i32* %3, align 4
  %46 = sext i32 %45 to i64
  %47 = getelementptr inbounds [6 x i8], [6 x i8]* %44, i64 0, i64 %46
  store i8 0, i8* %47, align 1
  br label %48

48:                                               ; preds = %41
  %49 = load i32, i32* %4, align 4
  %50 = add nsw i32 %49, 1
  store i32 %50, i32* %4, align 4
  br label %14

51:                                               ; preds = %14
  store i32 0, i32* %4, align 4
  br label %52

52:                                               ; preds = %92, %51
  %53 = load i32, i32* %4, align 4
  %54 = load i32, i32* %5, align 4
  %55 = load i32, i32* %3, align 4
  %56 = sub nsw i32 %54, %55
  %57 = icmp slt i32 %53, %56
  br i1 %57, label %58, label %95

58:                                               ; preds = %52
  %59 = load i32, i32* %4, align 4
  %60 = sext i32 %59 to i64
  %61 = getelementptr inbounds [500 x i32], [500 x i32]* %8, i64 0, i64 %60
  store i32 1, i32* %61, align 4
  %62 = load i32, i32* %4, align 4
  %63 = add nsw i32 %62, 1
  store i32 %63, i32* %6, align 4
  br label %64

64:                                               ; preds = %88, %58
  %65 = load i32, i32* %6, align 4
  %66 = load i32, i32* %5, align 4
  %67 = load i32, i32* %3, align 4
  %68 = sub nsw i32 %66, %67
  %69 = icmp sle i32 %65, %68
  br i1 %69, label %70, label %91

70:                                               ; preds = %64
  %71 = load i32, i32* %4, align 4
  %72 = sext i32 %71 to i64
  %73 = getelementptr inbounds [500 x [6 x i8]], [500 x [6 x i8]]* %2, i64 0, i64 %72
  %74 = getelementptr inbounds [6 x i8], [6 x i8]* %73, i64 0, i64 0
  %75 = load i32, i32* %6, align 4
  %76 = sext i32 %75 to i64
  %77 = getelementptr inbounds [500 x [6 x i8]], [500 x [6 x i8]]* %2, i64 0, i64 %76
  %78 = getelementptr inbounds [6 x i8], [6 x i8]* %77, i64 0, i64 0
  %79 = call i32 @strcmp(i8* %74, i8* %78) #3
  %80 = icmp eq i32 %79, 0
  br i1 %80, label %81, label %87

81:                                               ; preds = %70
  %82 = load i32, i32* %4, align 4
  %83 = sext i32 %82 to i64
  %84 = getelementptr inbounds [500 x i32], [500 x i32]* %8, i64 0, i64 %83
  %85 = load i32, i32* %84, align 4
  %86 = add nsw i32 %85, 1
  store i32 %86, i32* %84, align 4
  br label %87

87:                                               ; preds = %81, %70
  br label %88

88:                                               ; preds = %87
  %89 = load i32, i32* %6, align 4
  %90 = add nsw i32 %89, 1
  store i32 %90, i32* %6, align 4
  br label %64

91:                                               ; preds = %64
  br label %92

92:                                               ; preds = %91
  %93 = load i32, i32* %4, align 4
  %94 = add nsw i32 %93, 1
  store i32 %94, i32* %4, align 4
  br label %52

95:                                               ; preds = %52
  %96 = getelementptr inbounds [500 x i32], [500 x i32]* %8, i64 0, i64 0
  %97 = load i32, i32* %96, align 16
  store i32 %97, i32* %7, align 4
  store i32 1, i32* %4, align 4
  br label %98

98:                                               ; preds = %117, %95
  %99 = load i32, i32* %4, align 4
  %100 = load i32, i32* %5, align 4
  %101 = load i32, i32* %3, align 4
  %102 = sub nsw i32 %100, %101
  %103 = icmp slt i32 %99, %102
  br i1 %103, label %104, label %120

104:                                              ; preds = %98
  %105 = load i32, i32* %4, align 4
  %106 = sext i32 %105 to i64
  %107 = getelementptr inbounds [500 x i32], [500 x i32]* %8, i64 0, i64 %106
  %108 = load i32, i32* %107, align 4
  %109 = load i32, i32* %7, align 4
  %110 = icmp sgt i32 %108, %109
  br i1 %110, label %111, label %116

111:                                              ; preds = %104
  %112 = load i32, i32* %4, align 4
  %113 = sext i32 %112 to i64
  %114 = getelementptr inbounds [500 x i32], [500 x i32]* %8, i64 0, i64 %113
  %115 = load i32, i32* %114, align 4
  store i32 %115, i32* %7, align 4
  br label %116

116:                                              ; preds = %111, %104
  br label %117

117:                                              ; preds = %116
  %118 = load i32, i32* %4, align 4
  %119 = add nsw i32 %118, 1
  store i32 %119, i32* %4, align 4
  br label %98

120:                                              ; preds = %98
  %121 = load i32, i32* %7, align 4
  %122 = icmp eq i32 %121, 1
  br i1 %122, label %123, label %125

123:                                              ; preds = %120
  %124 = call i32 (i8*, ...) @printf(i8* getelementptr inbounds ([3 x i8], [3 x i8]* @.str.1, i64 0, i64 0))
  br label %152

125:                                              ; preds = %120
  %126 = load i32, i32* %7, align 4
  %127 = call i32 (i8*, ...) @printf(i8* getelementptr inbounds ([4 x i8], [4 x i8]* @.str.2, i64 0, i64 0), i32 %126)
  store i32 0, i32* %4, align 4
  br label %128

128:                                              ; preds = %148, %125
  %129 = load i32, i32* %4, align 4
  %130 = load i32, i32* %5, align 4
  %131 = load i32, i32* %3, align 4
  %132 = sub nsw i32 %130, %131
  %133 = icmp slt i32 %129, %132
  br i1 %133, label %134, label %151

134:                                              ; preds = %128
  %135 = load i32, i32* %4, align 4
  %136 = sext i32 %135 to i64
  %137 = getelementptr inbounds [500 x i32], [500 x i32]* %8, i64 0, i64 %136
  %138 = load i32, i32* %137, align 4
  %139 = load i32, i32* %7, align 4
  %140 = icmp eq i32 %138, %139
  br i1 %140, label %141, label %147

141:                                              ; preds = %134
  %142 = load i32, i32* %4, align 4
  %143 = sext i32 %142 to i64
  %144 = getelementptr inbounds [500 x [6 x i8]], [500 x [6 x i8]]* %2, i64 0, i64 %143
  %145 = getelementptr inbounds [6 x i8], [6 x i8]* %144, i64 0, i64 0
  %146 = call i32 (i8*, ...) @printf(i8* getelementptr inbounds ([4 x i8], [4 x i8]* @.str.3, i64 0, i64 0), i8* %145)
  br label %147

147:                                              ; preds = %141, %134
  br label %148

148:                                              ; preds = %147
  %149 = load i32, i32* %4, align 4
  %150 = add nsw i32 %149, 1
  store i32 %150, i32* %4, align 4
  br label %128

151:                                              ; preds = %128
  br label %152

152:                                              ; preds = %151, %123
  ret void
}

declare dso_local i32 @__isoc99_scanf(i8*, ...) #1

; Function Attrs: nounwind readonly
declare dso_local i64 @strlen(i8*) #2

; Function Attrs: nounwind readonly
declare dso_local i32 @strcmp(i8*, i8*) #2

declare dso_local i32 @printf(i8*, ...) #1


!llvm.module.flags = !{!0}
!llvm.ident = !{!1}

!0 = !{i32 1, !"wchar_size", i32 4}
!1 = !{!"clang version 10.0.0-4ubuntu1 "}
